target datalayout = "e-m:e-p270:32:32-p271:32:32-p272:64:64-i64:64-i128:128-f80:128-n8:16:32:64-S128"
target triple = "x86_64-pc-linux-gnu"

%"class.cv::UMat" = type { i32, i32, i32, i32, ptr, i32, ptr, i64, %"struct.cv::MatSize", %"struct.cv::MatStep" }
%"struct.cv::MatSize" = type { ptr }
%"struct.cv::MatStep" = type { ptr, [2 x i64] }

; Function Attrs: mustprogress uwtable
define void @_ZN2cv4UMat20updateContinuityFlagEv(ptr noundef nonnull align 8 dereferenceable(80) %0) #3 align 2 {
  %2 = alloca ptr, align 8
  store ptr %0, ptr %2, align 8, !tbaa !65
  %3 = load ptr, ptr %2, align 8
  %4 = getelementptr inbounds nuw %"class.cv::UMat", ptr %3, i32 0, i32 0
  %5 = load i32, ptr %4, align 8, !tbaa !69
  %6 = getelementptr inbounds nuw %"class.cv::UMat", ptr %3, i32 0, i32 1
  %7 = load i32, ptr %6, align 4, !tbaa !75
  %8 = getelementptr inbounds nuw %"class.cv::UMat", ptr %3, i32 0, i32 8
  %9 = getelementptr inbounds nuw %"struct.cv::MatSize", ptr %8, i32 0, i32 0
  %10 = load ptr, ptr %9, align 8, !tbaa !96
  %11 = getelementptr inbounds nuw %"class.cv::UMat", ptr %3, i32 0, i32 9
  %12 = getelementptr inbounds nuw %"struct.cv::MatStep", ptr %11, i32 0, i32 0
  %13 = load ptr, ptr %12, align 8, !tbaa !98
  %14 = call noundef i32 @_ZN2cv20updateContinuityFlagEiiPKiPKm(i32 noundef %5, i32 noundef %7, ptr noundef %10, ptr noundef %13)
  %15 = getelementptr inbounds nuw %"class.cv::UMat", ptr %3, i32 0, i32 0
  store i32 %14, ptr %15, align 8, !tbaa !69
  ret void
}

; Function Attrs: mustprogress uwtable
define hidden void @_ZN2cv11finalizeHdrERNS_4UMatE(ptr noundef nonnull align 8 dereferenceable(80) %0) #3 {
  %2 = alloca ptr, align 8
  %3 = alloca i32, align 4
  store ptr %0, ptr %2, align 8, !tbaa !65
  %4 = load ptr, ptr %2, align 8, !tbaa !65
  call void @_ZN2cv4UMat20updateContinuityFlagEv(ptr noundef nonnull align 8 dereferenceable(80) %4)
  call void @llvm.lifetime.start.p0(i64 4, ptr %3) #16
  %5 = load ptr, ptr %2, align 8, !tbaa !65
  %6 = getelementptr inbounds nuw %"class.cv::UMat", ptr %5, i32 0, i32 1
  %7 = load i32, ptr %6, align 4, !tbaa !75
  store i32 %7, ptr %3, align 4, !tbaa !37
  %8 = load i32, ptr %3, align 4, !tbaa !37
  %9 = icmp sgt i32 %8, 2
  br i1 %9, label %10, label %15

10:                                               ; preds = %1
  %11 = load ptr, ptr %2, align 8, !tbaa !65
  %12 = getelementptr inbounds nuw %"class.cv::UMat", ptr %11, i32 0, i32 3
  store i32 -1, ptr %12, align 4, !tbaa !77
  %13 = load ptr, ptr %2, align 8, !tbaa !65
  %14 = getelementptr inbounds nuw %"class.cv::UMat", ptr %13, i32 0, i32 2
  store i32 -1, ptr %14, align 8, !tbaa !76
  br label %15

15:                                               ; preds = %10, %1
  call void @llvm.lifetime.end.p0(i64 4, ptr %3) #16
  ret void
}