; Function Attrs: mustprogress uwtable
define hidden void @_ZN2cv11finalizeHdrERNS_4UMatE(ptr noundef nonnull align 8 captures(none) dereferenceable(80) %0) local_unnamed_addr #4 {
  %2 = load i32, ptr %0, align 8, !tbaa !43
  %3 = getelementptr inbounds nuw i8, ptr %0, i64 4
  %4 = load i32, ptr %3, align 4, !tbaa !58
  %5 = getelementptr inbounds nuw i8, ptr %0, i64 48
  %6 = load ptr, ptr %5, align 8, !tbaa !61
  %7 = getelementptr inbounds nuw i8, ptr %0, i64 56
  %8 = load ptr, ptr %7, align 8, !tbaa !67
  %9 = tail call noundef i32 @_ZN2cv20updateContinuityFlagEiiPKiPKm(i32 noundef %2, i32 noundef %4, ptr noundef %6, ptr noundef %8)
  store i32 %9, ptr %0, align 8, !tbaa !43
  %10 = load i32, ptr %3, align 4, !tbaa !58
  %11 = icmp sgt i32 %10, 2
  br i1 %11, label %12, label %15

12:                                               ; preds = %1
  %13 = getelementptr inbounds nuw i8, ptr %0, i64 12
  store i32 -1, ptr %13, align 4, !tbaa !65
  %14 = getelementptr inbounds nuw i8, ptr %0, i64 8
  store i32 -1, ptr %14, align 8, !tbaa !64
  br label %15

15:                                               ; preds = %12, %1
  ret void
}